target datalayout = "e-m:e-p270:32:32-p271:32:32-p272:64:64-i64:64-i128:128-f80:128-n8:16:32:64-S128"
target triple = "x86_64-pc-linux-gnu"

%struct._php_stream = type { ptr, ptr, %struct._php_stream_filter_chain, %struct._php_stream_filter_chain, ptr, ptr, %struct._zval_struct, i16, [16 x i8], i32, ptr, ptr, ptr, ptr, i64, ptr, i64, i64, i64, i64, ptr }
%struct._php_stream_filter_chain = type { ptr, ptr, ptr }
%struct._zval_struct = type { %union._zend_value, %union.anon, %union.anon.2 }
%union._zend_value = type { i64 }
%union.anon = type { i32 }
%union.anon.2 = type { i32 }
%struct.php_stream_temp_data = type { ptr, i64, i32, %struct._zval_struct, ptr }

; Function Attrs: nounwind uwtable
define internal i64 @php_stream_temp_read(ptr noundef %0, ptr noundef %1, i64 noundef %2) #0 {
  %4 = alloca i64, align 8
  %5 = alloca ptr, align 8
  %6 = alloca ptr, align 8
  %7 = alloca i64, align 8
  %8 = alloca ptr, align 8
  %9 = alloca i64, align 8
  store ptr %0, ptr %5, align 8
  store ptr %1, ptr %6, align 8
  store i64 %2, ptr %7, align 8
  %10 = load ptr, ptr %5, align 8
  %11 = getelementptr inbounds %struct._php_stream, ptr %10, i32 0, i32 1
  %12 = load ptr, ptr %11, align 8
  store ptr %12, ptr %8, align 8
  %13 = load ptr, ptr %8, align 8
  %14 = getelementptr inbounds %struct.php_stream_temp_data, ptr %13, i32 0, i32 0
  %15 = load ptr, ptr %14, align 8
  %16 = icmp ne ptr %15, null
  br i1 %16, label %18, label %17

17:                                               ; preds = %3
  store i64 -1, ptr %4, align 8
  br label %40

18:                                               ; preds = %3
  %19 = load ptr, ptr %8, align 8
  %20 = getelementptr inbounds %struct.php_stream_temp_data, ptr %19, i32 0, i32 0
  %21 = load ptr, ptr %20, align 8
  %22 = load ptr, ptr %6, align 8
  %23 = load i64, ptr %7, align 8
  %24 = call i64 @_php_stream_read(ptr noundef %21, ptr noundef %22, i64 noundef %23)
  store i64 %24, ptr %9, align 8
  %25 = load ptr, ptr %8, align 8
  %26 = getelementptr inbounds %struct.php_stream_temp_data, ptr %25, i32 0, i32 0
  %27 = load ptr, ptr %26, align 8
  %28 = getelementptr inbounds %struct._php_stream, ptr %27, i32 0, i32 7
  %29 = load i16, ptr %28, align 8
  %30 = lshr i16 %29, 3
  %31 = and i16 %30, 1
  %32 = load ptr, ptr %5, align 8
  %33 = getelementptr inbounds %struct._php_stream, ptr %32, i32 0, i32 7
  %34 = load i16, ptr %33, align 8
  %35 = and i16 %31, 1
  %36 = shl i16 %35, 3
  %37 = and i16 %34, -9
  %38 = or i16 %37, %36
  store i16 %38, ptr %33, align 8
  %39 = load i64, ptr %9, align 8
  store i64 %39, ptr %4, align 8
  br label %40

40:                                               ; preds = %18, %17
  %41 = load i64, ptr %4, align 8
  ret i64 %41
}