; Function Attrs: nounwind uwtable
define internal i64 @php_stream_temp_read(ptr nocapture noundef %0, ptr noundef %1, i64 noundef %2) #0 {
  %4 = getelementptr inbounds i8, ptr %0, i64 8
  %5 = load ptr, ptr %4, align 8
  %6 = load ptr, ptr %5, align 8
  %.not = icmp eq ptr %6, null
  br i1 %.not, label %17, label %7

7:                                                ; preds = %3
  %8 = tail call i64 @_php_stream_read(ptr noundef nonnull %6, ptr noundef %1, i64 noundef %2) #20
  %9 = load ptr, ptr %5, align 8
  %10 = getelementptr inbounds i8, ptr %9, i64 96
  %11 = load i16, ptr %10, align 8
  %12 = and i16 %11, 8
  %13 = getelementptr inbounds i8, ptr %0, i64 96
  %14 = load i16, ptr %13, align 8
  %15 = and i16 %14, -9
  %16 = or disjoint i16 %15, %12
  store i16 %16, ptr %13, align 8
  br label %17

17:                                               ; preds = %3, %7
  %.0 = phi i64 [ %8, %7 ], [ -1, %3 ]
  ret i64 %.0
}